; Function Attrs: mustprogress uwtable
define dso_local noundef zeroext i1 @_ZN3net18ReliableQuicStream34MaybeIncreaseHighestReceivedOffsetEm(ptr noundef nonnull align 8 dereferenceable(377) %this, i64 noundef %new_offset) local_unnamed_addr #2 align 2 {
entry:
  %flow_controller_ = getelementptr inbounds i8, ptr %this, i64 272
  %highest_received_byte_offset_.i = getelementptr inbounds i8, ptr %this, i64 312
  %0 = load i64, ptr %highest_received_byte_offset_.i, align 8
  %sub = sub i64 %new_offset, %0
  %call3 = tail call noundef zeroext i1 @_ZN3net18QuicFlowController27UpdateHighestReceivedOffsetEm(ptr noundef nonnull align 8 dereferenceable(96) %flow_controller_, i64 noundef %new_offset)
  br i1 %call3, label %if.end, label %return

if.end:                                           ; preds = %entry
  %stream_contributes_to_connection_flow_control_ = getelementptr inbounds i8, ptr %this, i64 376
  %1 = load i8, ptr %stream_contributes_to_connection_flow_control_, align 8
  %2 = and i8 %1, 1
  %tobool.not = icmp eq i8 %2, 0
  br i1 %tobool.not, label %return, label %if.then4

if.then4:                                         ; preds = %if.end
  %connection_flow_controller_ = getelementptr inbounds i8, ptr %this, i64 368
  %3 = load ptr, ptr %connection_flow_controller_, align 8
  %highest_received_byte_offset_.i2 = getelementptr inbounds i8, ptr %3, i64 40
  %4 = load i64, ptr %highest_received_byte_offset_.i2, align 8
  %add = add i64 %sub, %4
  %call7 = tail call noundef zeroext i1 @_ZN3net18QuicFlowController27UpdateHighestReceivedOffsetEm(ptr noundef nonnull align 8 dereferenceable(96) %3, i64 noundef %add)
  br label %return

return:                                           ; preds = %if.end, %if.then4, %entry
  ret i1 %call3
}